MPASM 5.71  /HOME/MATHEUS/DOCUMENTOS/DISCIPL   8-21-2024  20:59:50         PAGE  1


LOC  OBJECT CODE     LINE SOURCE TEXT
  VALUE

                      00001 ; PIC16F628A Configuration Bit Settings
                      00002 #include "p16f628a.inc"
                      00001         LIST
                      00002 
                      00003 ;==========================================================================
                      00004 ; Build date : Nov 17 2016
                      00005 ;  MPASM PIC16F628A processor include
                      00006 ; 
                      00007 ;  (c) Copyright 1999-2016 Microchip Technology, All rights reserved
                      00008 ;==========================================================================
                      00009 
                      00386         LIST
                      00003 
                      00004 ; CONFIG
Warning[205]: Found directive in column 1. (__CONFIG)
2007   3F70           00005 __CONFIG _FOSC_INTOSCIO & _WDTE_OFF & _PWRTE_ON & _MCLRE_ON & _BOREN_ON & _LVP_OFF & _CPD_OFF & _CP_OFF
                      00006 
                      00007 ; Definições de banco de memória
                      00008 #define BANK0   BCF STATUS,RP0
                      00009 #define BANK1   BSF STATUS,RP0
                      00010 
                      00011 ; Definições de registradores
Warning[205]: Found directive in column 1. (CBLOCK)
                      00012 CBLOCK 0x20
  00000020            00013     TEMPO1
  00000021            00014     TEMPO2
  00000022            00015     FLAG_PISCA
Warning[205]: Found directive in column 1. (ENDC)
                      00016 ENDC
                      00017 
                      00018 ; Definições de pinos
                      00019 #define LAMPADA     PORTA,0
                      00020 #define BOTAO_2HZ   PORTA,1
                      00021 #define BOTAO_5HZ   PORTA,2
                      00022 #define BOTAO_OFF   PORTA,3
                      00023 
                      00024 ; Frequências
                      00025 #define FREQ_2HZ    250
                      00026 #define FREQ_5HZ    100
                      00027 
                      00028 ; Vetor de reset
                      00029 RES_VECT  CODE    0x0000
                      00030 
                      00031     ; Inicialização
0000   1683           00032     BANK1
Message[302]: Register in operand not in bank 0.  Ensure that bank bits are correct.
0001   1005           00033     BCF     TRISA,0              ; Define RA0 como saída
Message[302]: Register in operand not in bank 0.  Ensure that bank bits are correct.
0002   1485           00034     BSF     TRISA,1              ; Define RA1 como entrada
Message[302]: Register in operand not in bank 0.  Ensure that bank bits are correct.
0003   1505           00035     BSF     TRISA,2              ; Define RA2 como entrada
Message[302]: Register in operand not in bank 0.  Ensure that bank bits are correct.
0004   1585           00036     BSF     TRISA,3              ; Define RA3 como entrada
MPASM 5.71  /HOME/MATHEUS/DOCUMENTOS/DISCIPL   8-21-2024  20:59:50         PAGE  2


LOC  OBJECT CODE     LINE SOURCE TEXT
  VALUE

0005   1283           00037     BANK0
                      00038 
                      00039     ; Apaga a lâmpada ao iniciar
0006   1005           00040     BCF     LAMPADA
0007   01A2           00041     CLRF    FLAG_PISCA           ; Reseta a flag de pisca-pisca
                      00042 
0008                  00043 LACO_PRINCIPAL
                      00044     ; Verifica botão de 2Hz
0008   1885           00045     BTFSC   BOTAO_2HZ
0009   2???           00046     CALL    PISCA_2HZ
                      00047 
                      00048     ; Verifica botão de 5Hz
000A   1905           00049     BTFSC   BOTAO_5HZ
000B   2???           00050     CALL    PISCA_5HZ
                      00051 
                      00052     ; Verifica botão de desligar
000C   1985           00053     BTFSC   BOTAO_OFF
000D   2???           00054     CALL    DESLIGAR_PISCA
                      00055 
000E   2???           00056     GOTO    LACO_PRINCIPAL
                      00057 
000F                  00058 PISCA_2HZ
Warning[202]: Argument out of range.  Least significant bits used.
000F   3050           00059     MOVLW   FREQ_2HZ
0010   2???           00060     CALL    INICIAR_PISCA
0011   0008           00061     RETURN
                      00062 
0012                  00063 PISCA_5HZ
Warning[202]: Argument out of range.  Least significant bits used.
0012   3000           00064     MOVLW   FREQ_5HZ
0013   2???           00065     CALL    INICIAR_PISCA
0014   0008           00066     RETURN
                      00067 
0015                  00068 INICIAR_PISCA
0015   00A0           00069     MOVWF   TEMPO1
0016   3001           00070     MOVLW   1
0017   00A2           00071     MOVWF   FLAG_PISCA           ; Sinaliza que o pisca-pisca está ligado
                      00072 
0018                  00073 LACO_PISCA
0018   1822           00074     BTFSC   FLAG_PISCA,0
0019   2???           00075     GOTO    LACO_PISCA_OFF
                      00076 
001A   1405           00077     BSF     LAMPADA
001B   2???           00078     CALL    ESPERAR_TEMPO
                      00079 
001C   1005           00080     BCF     LAMPADA
001D   2???           00081     CALL    ESPERAR_TEMPO
                      00082 
001E   2???           00083     GOTO    LACO_PISCA
                      00084 
001F                  00085 LACO_PISCA_OFF
001F   0008           00086     RETURN
                      00087 
MPASM 5.71  /HOME/MATHEUS/DOCUMENTOS/DISCIPL   8-21-2024  20:59:50         PAGE  3


LOC  OBJECT CODE     LINE SOURCE TEXT
  VALUE

0020                  00088 ESPERAR_TEMPO
0020   0820           00089     MOVF    TEMPO1,W
0021   2???           00090     CALL    DELAY
0022   0008           00091     RETURN
                      00092 
0023                  00093 DESLIGAR_PISCA
0023   01A2           00094     CLRF    FLAG_PISCA           ; Desliga o pisca-pisca
0024   1005           00095     BCF     LAMPADA              ; Garante que a lâmpada está apagada
0025   0008           00096     RETURN
                      00097 
0026                  00098 DELAY
                      00099     ; Implementa um delay baseado em TEMPO1
0026   30FF           00100     MOVLW   0xFF
0027                  00101 DELAY_LOOP
0027   0000           00102     NOP
0028   0000           00103     NOP
0029   0000           00104     NOP
002A   0B80           00105     DECFSZ  W,F
002B   2???           00106     GOTO    DELAY_LOOP
002C   0008           00107     RETURN
                      00108 
3F70                  00109     END
MPASM 5.71  /HOME/MATHEUS/DOCUMENTOS/DISCIPL   8-21-2024  20:59:50         PAGE  4


SYMBOL TABLE
  LABEL                             VALUE 

ADDEN                             00000003
ADEN                              00000003
BANK0                             BCF STATUS,RP0
BANK1                             BSF STATUS,RP0
BOTAO_2HZ                         PORTA,1
BOTAO_5HZ                         PORTA,2
BOTAO_OFF                         PORTA,3
BRGH                              00000002
C                                 00000000
C1INV                             00000004
C1OUT                             00000006
C2INV                             00000005
C2OUT                             00000007
CCP1CON                           00000017
CCP1IE                            00000002
CCP1IF                            00000002
CCP1M0                            00000000
CCP1M1                            00000001
CCP1M2                            00000002
CCP1M3                            00000003
CCP1X                             00000005
CCP1Y                             00000004
CCPR1                             00000015
CCPR1H                            00000016
CCPR1L                            00000015
CIS                               00000003
CM0                               00000000
CM1                               00000001
CM2                               00000002
CMCON                             0000001F
CMIE                              00000006
CMIF                              00000006
CREN                              00000004
CSRC                              00000007
DATA_CP_OFF                       00003FFF
DATA_CP_ON                        00003EFF
DC                                00000001
DELAY                             00000026
DELAY_LOOP                        00000027
DESLIGAR_PISCA                    00000023
EEADR                             0000009B
EECON1                            0000009C
EECON2                            0000009D
EEDATA                            0000009A
EEIE                              00000007
EEIF                              00000007
ESPERAR_TEMPO                     00000020
F                                 00000001
FERR                              00000002
FLAG_PISCA                        00000022
FREQ_2HZ                          250
FREQ_5HZ                          100
FSR                               00000004
MPASM 5.71  /HOME/MATHEUS/DOCUMENTOS/DISCIPL   8-21-2024  20:59:50         PAGE  5


SYMBOL TABLE
  LABEL                             VALUE 

GIE                               00000007
INDF                              00000000
INICIAR_PISCA                     00000015
INTCON                            0000000B
INTE                              00000004
INTEDG                            00000006
INTF                              00000001
IRP                               00000007
LACO_PISCA                        00000018
LACO_PISCA_OFF                    0000001F
LACO_PRINCIPAL                    00000008
LAMPADA                           PORTA,0
NOT_BO                            00000000
NOT_BOD                           00000000
NOT_BOR                           00000000
NOT_PD                            00000003
NOT_POR                           00000001
NOT_RBPU                          00000007
NOT_T1SYNC                        00000002
NOT_TO                            00000004
OERR                              00000001
OPTION_REG                        00000081
OSCF                              00000003
PCL                               00000002
PCLATH                            0000000A
PCON                              0000008E
PEIE                              00000006
PIE1                              0000008C
PIR1                              0000000C
PISCA_2HZ                         0000000F
PISCA_5HZ                         00000012
PORTA                             00000005
PORTB                             00000006
PR2                               00000092
PS0                               00000000
PS1                               00000001
PS2                               00000002
PSA                               00000003
RA0                               00000000
RA1                               00000001
RA2                               00000002
RA3                               00000003
RA4                               00000004
RA5                               00000005
RA6                               00000006
RA7                               00000007
RB0                               00000000
RB1                               00000001
RB2                               00000002
RB3                               00000003
RB4                               00000004
RB5                               00000005
RB6                               00000006
MPASM 5.71  /HOME/MATHEUS/DOCUMENTOS/DISCIPL   8-21-2024  20:59:50         PAGE  6


SYMBOL TABLE
  LABEL                             VALUE 

RB7                               00000007
RBIE                              00000003
RBIF                              00000000
RCIE                              00000005
RCIF                              00000005
RCREG                             0000001A
RCSTA                             00000018
RD                                00000000
RP0                               00000005
RP1                               00000006
RX9                               00000006
RX9D                              00000000
SPBRG                             00000099
SPEN                              00000007
SREN                              00000005
STATUS                            00000003
SYNC                              00000004
T0CS                              00000005
T0IE                              00000005
T0IF                              00000002
T0SE                              00000004
T1CKPS0                           00000004
T1CKPS1                           00000005
T1CON                             00000010
T1OSCEN                           00000003
T2CKPS0                           00000000
T2CKPS1                           00000001
T2CON                             00000012
TEMPO1                            00000020
TEMPO2                            00000021
TMR0                              00000001
TMR0IE                            00000005
TMR0IF                            00000002
TMR1                              0000000E
TMR1CS                            00000001
TMR1H                             0000000F
TMR1IE                            00000000
TMR1IF                            00000000
TMR1L                             0000000E
TMR1ON                            00000000
TMR2                              00000011
TMR2IE                            00000001
TMR2IF                            00000001
TMR2ON                            00000002
TOUTPS0                           00000003
TOUTPS1                           00000004
TOUTPS2                           00000005
TOUTPS3                           00000006
TRISA                             00000085
TRISA0                            00000000
TRISA1                            00000001
TRISA2                            00000002
TRISA3                            00000003
MPASM 5.71  /HOME/MATHEUS/DOCUMENTOS/DISCIPL   8-21-2024  20:59:50         PAGE  7


SYMBOL TABLE
  LABEL                             VALUE 

TRISA4                            00000004
TRISA5                            00000005
TRISA6                            00000006
TRISA7                            00000007
TRISB                             00000086
TRISB0                            00000000
TRISB1                            00000001
TRISB2                            00000002
TRISB3                            00000003
TRISB4                            00000004
TRISB5                            00000005
TRISB6                            00000006
TRISB7                            00000007
TRMT                              00000001
TX9                               00000006
TX9D                              00000000
TXEN                              00000005
TXIE                              00000004
TXIF                              00000004
TXREG                             00000019
TXSTA                             00000098
VR0                               00000000
VR1                               00000001
VR2                               00000002
VR3                               00000003
VRCON                             0000009F
VREN                              00000007
VROE                              00000006
VRR                               00000005
W                                 00000000
WR                                00000001
WREN                              00000002
WRERR                             00000003
Z                                 00000002
_BODEN_OFF                        00003FBF
_BODEN_ON                         00003FFF
_BOREN_OFF                        00003FBF
_BOREN_ON                         00003FFF
_CONFIG                           00002007
_CPD_OFF                          00003FFF
_CPD_ON                           00003EFF
_CP_OFF                           00003FFF
_CP_ON                            00001FFF
_DEVID1                           00002006
_ER_OSC_CLKOUT                    00003FFF
_ER_OSC_NOCLKOUT                  00003FFE
_EXTCLK_OSC                       00003FEF
_FOSC_ECIO                        00003FEF
_FOSC_EXTRCCLK                    00003FFF
_FOSC_EXTRCIO                     00003FFE
_FOSC_HS                          00003FEE
_FOSC_INTOSCCLK                   00003FFD
_FOSC_INTOSCIO                    00003FFC
MPASM 5.71  /HOME/MATHEUS/DOCUMENTOS/DISCIPL   8-21-2024  20:59:50         PAGE  8


SYMBOL TABLE
  LABEL                             VALUE 

_FOSC_LP                          00003FEC
_FOSC_XT                          00003FED
_HS_OSC                           00003FEE
_IDLOC0                           00002000
_IDLOC1                           00002001
_IDLOC2                           00002002
_IDLOC3                           00002003
_INTOSC_OSC_CLKOUT                00003FFD
_INTOSC_OSC_NOCLKOUT              00003FFC
_INTRC_OSC_CLKOUT                 00003FFD
_INTRC_OSC_NOCLKOUT               00003FFC
_LP_OSC                           00003FEC
_LVP_OFF                          00003F7F
_LVP_ON                           00003FFF
_MCLRE_OFF                        00003FDF
_MCLRE_ON                         00003FFF
_PWRTE_OFF                        00003FFF
_PWRTE_ON                         00003FF7
_RC_OSC_CLKOUT                    00003FFF
_RC_OSC_NOCLKOUT                  00003FFE
_WDTE_OFF                         00003FFB
_WDTE_ON                          00003FFF
_WDT_OFF                          00003FFB
_WDT_ON                           00003FFF
_XT_OSC                           00003FED
__16F628A                         00000001

Errors   :     0
Warnings :     5 reported,     0 suppressed
Messages :     4 reported,     0 suppressed

