MPASM 5.71  /HOME/MATHEUS/DOCUMENTOS/DISCIPL   9-4-2024  11:31:05         PAGE  1


LOC  OBJECT CODE     LINE SOURCE TEXT
  VALUE

                      00001 ; TODO INSERT CONFIG CODE HERE USING CONFIG BITS GENERATOR
                      00002 
                      00003 
                      00004 ; PIC16F628A Configuration Bit Settings
                      00005 
                      00006 ; Assembly source line config statements
                      00007 
                      00008 #include "p16f628a.inc"
                      00001         LIST
                      00002 
                      00003 ;==========================================================================
                      00004 ; Build date : Nov 17 2016
                      00005 ;  MPASM PIC16F628A processor include
                      00006 ; 
                      00007 ;  (c) Copyright 1999-2016 Microchip Technology, All rights reserved
                      00008 ;==========================================================================
                      00009 
                      00386         LIST
                      00009 
                      00010 ; CONFIG
                      00011 ; __config 0xFF70
2007   3F70           00012  __CONFIG _FOSC_INTOSCIO & _WDTE_OFF & _PWRTE_ON & _MCLRE_ON & _BOREN_ON & _LVP_OFF & _CPD_OFF & _CP_OFF
                      00013 
                      00014 #define BANK0 BCF STATUS, RP0
                      00015 #define BANK1 BSF STATUS, RP0
                      00016     
                      00017     CBLOCK 0x20
  00000020            00018         FILTRO_UP
  00000021            00019         FILTRO_DOWN
  00000022            00020         UNIDADE
  00000023            00021         FLAGS
  00000024            00022         W_TEMP
  00000025            00023         S_TEMP
  00000026            00024         RAMPA
                      00025     ENDC
                      00026     
                      00027     ;variaveis
                      00028     #define JA_LI_UP   FLAGS,0
                      00029     #define JA_LI_DOWN   FLAGS,1
                      00030     
                      00031     ;entradas
                      00032     #define     B_ZERAR PORTA,3
                      00033     #define     B_DOWN  PORTA,2
                      00034     #define     B_UP    PORTA,1
                      00035     
                      00036     ;saidas
                      00037     #define     DISPLAY PORTB
                      00038     #define     PWM     PORTA,0
                      00039     
                      00040     ;constantes
Warning[207]: Found label after column 1. (V_FILTRO)
  00000064            00041     V_FILTRO    EQU     .100
                      00042  
MPASM 5.71  /HOME/MATHEUS/DOCUMENTOS/DISCIPL   9-4-2024  11:31:05         PAGE  2


LOC  OBJECT CODE     LINE SOURCE TEXT
  VALUE

                      00043 RES_VECT    CODE    0x0000              ; processor reset vector
0000   2???           00044     GOTO CONFIGURE                      ;PULA PARA CONFIGURE
                      00045   
                      00046 INT_VECT    CODE    0X0004              ;VETOR DE INTERRUPÇAO
0004   00A4           00047     MOVWF   W_TEMP                  ;
0005   0803           00048     MOVF    STATUS,W                ;
0006   00A5           00049     MOVWF   S_TEMP                  ;
0007   1D0B           00050     BTFSS   INTCON,T0IF             ;
0008   2???           00051     GOTO    SAI_INTERRUPCAO         ;
0009   110B           00052     BCF     INTCON,T0IF             ;
000A   3006           00053     MOVLW   .6
000B   0781           00054     ADDWF   TMR0,F                  ;
000C   0AA6           00055     INCF    RAMPA,F
000D   3010           00056     MOVLW   .16
000E   0226           00057     SUBWF   RAMPA,W
000F   1803           00058     BTFSC   STATUS,C
0010   01A6           00059     CLRF    RAMPA
0011   0822           00060     MOVF    UNIDADE,W
0012   0226           00061     SUBWF   RAMPA,W
0013   1C03           00062     BTFSS   STATUS,C
0014   2???           00063     GOTO    EH_MENOR
0015   1005           00064     BCF     PWM
0016   2???           00065     GOTO    SAI_INTERRUPCAO
0017                  00066 EH_MENOR
0017   1405           00067     BSF PWM
0018                  00068 SAI_INTERRUPCAO
0018   0825           00069     MOVF    S_TEMP,W                ;
0019   0083           00070     MOVWF   STATUS                  ;
001A   0824           00071     MOVF    W_TEMP,W                ;
001B   0009           00072     RETFIE
001C                  00073 CONFIGURE
001C   1683           00074     BANK1                           ;seleciona banco 1 da memoria RAM
Message[302]: Register in operand not in bank 0.  Ensure that bank bits are correct.
001D   0186           00075     CLRF    TRISB                   ;configura o PRTB como saída
Message[302]: Register in operand not in bank 0.  Ensure that bank bits are correct.
001E   1005           00076     BCF     TRISA,0
001F   30D1           00077     MOVLW   B'11010001'                         ;palavra de configuração do TIMER0
                      00078                                                 ;bit7: ativa resistores PULL_UP do PORTB
                      00079                                                 ;bit6: define o tipo de borda para RB0
                      00080                                                 ;bit5: define origem do clock do TIMER0
                      00081                                                 ;bit4: define borda do clock do TIMER0
                      00082                                                 ;bit3: quem usa o PRESCALER - TMR0 ou WDT
                      00083                                                 ;bit2..0: define PRESCALER - 100 - 1:32
Message[302]: Register in operand not in bank 0.  Ensure that bank bits are correct.
0020   0081           00084     MOVWF   OPTION_REG                          ;carrega a configuração do TIMER0
0021   1283           00085     BANK0                           ;seleciona banco 0 da memoria RAM
0022   3064           00086     MOVLW   V_FILTRO                ;W = FILTRO_UP (W=100)
0023   00A0           00087     MOVWF   FILTRO_UP               ;FILTRO_UP = V_FILTRO (FILTRO_UP = 100)
0024   00A1           00088     MOVWF   FILTRO_DOWN             ;FILTRO_DOWN = V_FILTRO (FILTRO_UP = 100)
0025   1023           00089     BCF     JA_LI_UP                ;JA_LI_UP = 0
0026   10A3           00090     BCF     JA_LI_DOWN              ;JA_LI_DONW = 0
0027   01A2           00091     CLRF    UNIDADE                 ;UNIDADE = 0
0028   01A6           00092     CLRF    RAMPA
MPASM 5.71  /HOME/MATHEUS/DOCUMENTOS/DISCIPL   9-4-2024  11:31:05         PAGE  3


LOC  OBJECT CODE     LINE SOURCE TEXT
  VALUE

0029   168B           00093     BSF     INTCON,T0IE
002A   178B           00094     BSF     INTCON,GIE
002B   2???           00095     CALL    ATUALIZA_DISPLAY        ;chama a subrotina ATUALIZA_DISPLAY
002C                  00096 LACO_PRINCIPAL
002C   1D85           00097     BTFSS   B_ZERAR                 ;testa B_ZERAR
002D   2???           00098     GOTO    B_ZERAR_ACIONADO        ;se acionado, pule para B_ZERAR_ACIONADO
002E   1885           00099     BTFSC   B_UP                    ;testa B_UP
002F   2???           00100     GOTO    B_UP_NAO_ACIONADO       ;se acionado, pule para B_UP_NAO_ACIONADO
0030   1823           00101     BTFSC   JA_LI_UP                ;testa JA_LI_UP
0031   2???           00102     GOTO    LACO_PRINCIPAL          ;se JA_LI_UP = 1, pule para o LACO_PRINCIPAL
0032   0BA0           00103     DECFSZ  FILTRO_UP,F             ;decrementa FILTRO_UP e verifica se zerou
0033   2???           00104     GOTO    LACO_PRINCIPAL          ;se nao zerou, pule para o LACO_PRINCIPAL
0034   1423           00105     BSF     JA_LI_UP                ;JA_LI_UP = 1
0035   0AA2           00106     INCF    UNIDADE,F               ;UNIDADE++
0036   3010           00107     MOVLW   .16                     ;W = 16
0037   0222           00108     SUBWF   UNIDADE,W               ;W = UNIDADE - W
0038   1803           00109     BTFSC   STATUS,C                ;teste se o resultado foi negativo
0039   01A2           00110     CLRF    UNIDADE                 ;zera a unidade
003A   2???           00111     CALL    ATUALIZA_DISPLAY        ;chama a subrotina ATUALIZA_DISPLAY
                      00112     
003B   2???           00113     GOTO    LACO_PRINCIPAL          ;pule para o LACO_PRINCIPAL
003C                  00114 B_ZERAR_ACIONADO
003C   01A2           00115     CLRF    UNIDADE                 ;zera a unidade
003D   2???           00116     CALL    ATUALIZA_DISPLAY        ;chama a subrotina ATUALIZA_DISPLAY
003E   2???           00117     GOTO    LACO_PRINCIPAL          ;pule para o LACO_PRINCIPAL
003F                  00118 B_UP_NAO_ACIONADO
003F   3064           00119     MOVLW   V_FILTRO                ;W = V_FILTRO (W=100)
0040   00A0           00120     MOVWF   FILTRO_UP               ;FILTRO_UP = V_FILTRO       (FILTRO_UP = 100)
0041   1023           00121     BCF     JA_LI_UP                ;JA_LI_UP = 0
0042   1905           00122     BTFSC   B_DOWN                  ;VERIFICAR O B_DOWN
0043   2???           00123     GOTO    B_DOWN_N_ACIONADO
0044   18A3           00124     BTFSC   JA_LI_DOWN              ;testa JA_LI_UP
0045   2???           00125     GOTO    LACO_PRINCIPAL          ;se JA_LI_UP = 1, pule para o LACO_PRINCIPAL
0046   0BA1           00126     DECFSZ  FILTRO_DOWN,F           ;decrementa FILTRO_UP e verifica se zerou
0047   2???           00127     GOTO    LACO_PRINCIPAL          ;se nao zerou, pule para o LACO_PRINCIPAL
0048   14A3           00128     BSF     JA_LI_DOWN              ;JA_LI_UP = 1
0049   03A2           00129     DECF    UNIDADE,F               ;UNIDADE--
004A   3010           00130     MOVLW   .16                     ;W = 16
004B   0222           00131     SUBWF   UNIDADE,W               ;W = UNIDADE - W
004C   1803           00132     BTFSC   STATUS,C                ;teste se o resultado foi negativo
004D   2???           00133     CALL    EH_NEGATIVO             ;SE UNIDADE < 16
004E   2???           00134     CALL    ATUALIZA_DISPLAY        ;chama a subrotina ATUALIZA_DISPLAY
004F   2???           00135     GOTO    LACO_PRINCIPAL          ;pule para o LACO_PRINCIPAL
                      00136     
0050                  00137 EH_NEGATIVO
0050   300F           00138     MOVLW   .15                     ;W = 15
0051   00A2           00139     MOVWF   UNIDADE                 ;UNIDADE = 15
0052   0008           00140     RETURN
                      00141     
0053                  00142 B_DOWN_N_ACIONADO
                      00143     
0053   3064           00144     MOVLW   V_FILTRO
0054   00A1           00145     MOVWF   FILTRO_DOWN
MPASM 5.71  /HOME/MATHEUS/DOCUMENTOS/DISCIPL   9-4-2024  11:31:05         PAGE  4


LOC  OBJECT CODE     LINE SOURCE TEXT
  VALUE

0055   10A3           00146     BCF     JA_LI_DOWN
0056   2???           00147     GOTO    LACO_PRINCIPAL
                      00148     
0057                  00149 ATUALIZA_DISPLAY
0057   0822           00150     MOVF    UNIDADE,W               ;W = UNIDADE
0058   2???           00151     CALL    BUSCA_CODIGO            ;chama a subrotina BUSCA_CODIGO
0059   0086           00152     MOVWF   DISPLAY                 ;DISPLAY = W (PORTB = W)
                      00153     
005A   0008           00154     RETURN                          ;retorna uma subrotina
005B                  00155 BUSCA_CODIGO
005B   0782           00156     ADDWF   PCL,F                   ;PCL = PCL + W
005C   34FE           00157     RETLW   0XFE                    ;retorna a subrotina com w = 0xFE
005D   3438           00158     RETLW   0X38                    ;retorna a subrotina com w = 0x38
005E   34DD           00159     RETLW   0XDD                    ;retorna a subrotina com w = 0xDD
005F   347D           00160     RETLW   0X7D                    ;retorna a subrotina com w = 0x7D
0060   343B           00161     RETLW   0X3B                    ;retorna a subrotina com w = 0x3B
0061   3477           00162     RETLW   0X77                    ;retorna a subrotina com w = 0x77
0062   34F7           00163     RETLW   0XF7                    ;retorna a subrotina com w = 0xF7
0063   343C           00164     RETLW   0X3C                    ;retorna a subrotina com w = 0x3C
0064   34FF           00165     RETLW   0XFF                    ;retorna a subrotina com w = 0xFF
0065   347F           00166     RETLW   0X7F                    ;retorna a subrotina com w = 0X7F
0066   34BF           00167     RETLW   0xBF                    ;retorna a subrotina com w = 0xBF
0067   34F3           00168     RETLW   0XF3                    ;retorna a subrotina com w = 0x73
0068   34D6           00169     RETLW   0xD6                    ;retorna a subrotina com w = 0xD6
0069   34F9           00170     RETLW   0XF9                    ;retorna a subrotina com w = 0xFA
006A   34D7           00171     RETLW   0XD7                    ;retorna a subrotina com w = 0XD7
006B   3497           00172     RETLW   0X97                    ;retorna a subrotina com w = 0X97
                      00173     
3F70                  00174     END
MPASM 5.71  /HOME/MATHEUS/DOCUMENTOS/DISCIPL   9-4-2024  11:31:05         PAGE  5


SYMBOL TABLE
  LABEL                             VALUE 

ADDEN                             00000003
ADEN                              00000003
ATUALIZA_DISPLAY                  00000057
BANK0                             BCF STATUS, RP0
BANK1                             BSF STATUS, RP0
BRGH                              00000002
BUSCA_CODIGO                      0000005B
B_DOWN                            PORTA,2
B_DOWN_N_ACIONADO                 00000053
B_UP                              PORTA,1
B_UP_NAO_ACIONADO                 0000003F
B_ZERAR                           PORTA,3
B_ZERAR_ACIONADO                  0000003C
C                                 00000000
C1INV                             00000004
C1OUT                             00000006
C2INV                             00000005
C2OUT                             00000007
CCP1CON                           00000017
CCP1IE                            00000002
CCP1IF                            00000002
CCP1M0                            00000000
CCP1M1                            00000001
CCP1M2                            00000002
CCP1M3                            00000003
CCP1X                             00000005
CCP1Y                             00000004
CCPR1                             00000015
CCPR1H                            00000016
CCPR1L                            00000015
CIS                               00000003
CM0                               00000000
CM1                               00000001
CM2                               00000002
CMCON                             0000001F
CMIE                              00000006
CMIF                              00000006
CONFIGURE                         0000001C
CREN                              00000004
CSRC                              00000007
DATA_CP_OFF                       00003FFF
DATA_CP_ON                        00003EFF
DC                                00000001
DISPLAY                           PORTB
EEADR                             0000009B
EECON1                            0000009C
EECON2                            0000009D
EEDATA                            0000009A
EEIE                              00000007
EEIF                              00000007
EH_MENOR                          00000017
EH_NEGATIVO                       00000050
F                                 00000001
MPASM 5.71  /HOME/MATHEUS/DOCUMENTOS/DISCIPL   9-4-2024  11:31:05         PAGE  6


SYMBOL TABLE
  LABEL                             VALUE 

FERR                              00000002
FILTRO_DOWN                       00000021
FILTRO_UP                         00000020
FLAGS                             00000023
FSR                               00000004
GIE                               00000007
INDF                              00000000
INTCON                            0000000B
INTE                              00000004
INTEDG                            00000006
INTF                              00000001
IRP                               00000007
JA_LI_DOWN                        FLAGS,1
JA_LI_UP                          FLAGS,0
LACO_PRINCIPAL                    0000002C
NOT_BO                            00000000
NOT_BOD                           00000000
NOT_BOR                           00000000
NOT_PD                            00000003
NOT_POR                           00000001
NOT_RBPU                          00000007
NOT_T1SYNC                        00000002
NOT_TO                            00000004
OERR                              00000001
OPTION_REG                        00000081
OSCF                              00000003
PCL                               00000002
PCLATH                            0000000A
PCON                              0000008E
PEIE                              00000006
PIE1                              0000008C
PIR1                              0000000C
PORTA                             00000005
PORTB                             00000006
PR2                               00000092
PS0                               00000000
PS1                               00000001
PS2                               00000002
PSA                               00000003
PWM                               PORTA,0
RA0                               00000000
RA1                               00000001
RA2                               00000002
RA3                               00000003
RA4                               00000004
RA5                               00000005
RA6                               00000006
RA7                               00000007
RAMPA                             00000026
RB0                               00000000
RB1                               00000001
RB2                               00000002
RB3                               00000003
MPASM 5.71  /HOME/MATHEUS/DOCUMENTOS/DISCIPL   9-4-2024  11:31:05         PAGE  7


SYMBOL TABLE
  LABEL                             VALUE 

RB4                               00000004
RB5                               00000005
RB6                               00000006
RB7                               00000007
RBIE                              00000003
RBIF                              00000000
RCIE                              00000005
RCIF                              00000005
RCREG                             0000001A
RCSTA                             00000018
RD                                00000000
RP0                               00000005
RP1                               00000006
RX9                               00000006
RX9D                              00000000
SAI_INTERRUPCAO                   00000018
SPBRG                             00000099
SPEN                              00000007
SREN                              00000005
STATUS                            00000003
SYNC                              00000004
S_TEMP                            00000025
T0CS                              00000005
T0IE                              00000005
T0IF                              00000002
T0SE                              00000004
T1CKPS0                           00000004
T1CKPS1                           00000005
T1CON                             00000010
T1OSCEN                           00000003
T2CKPS0                           00000000
T2CKPS1                           00000001
T2CON                             00000012
TMR0                              00000001
TMR0IE                            00000005
TMR0IF                            00000002
TMR1                              0000000E
TMR1CS                            00000001
TMR1H                             0000000F
TMR1IE                            00000000
TMR1IF                            00000000
TMR1L                             0000000E
TMR1ON                            00000000
TMR2                              00000011
TMR2IE                            00000001
TMR2IF                            00000001
TMR2ON                            00000002
TOUTPS0                           00000003
TOUTPS1                           00000004
TOUTPS2                           00000005
TOUTPS3                           00000006
TRISA                             00000085
TRISA0                            00000000
MPASM 5.71  /HOME/MATHEUS/DOCUMENTOS/DISCIPL   9-4-2024  11:31:05         PAGE  8


SYMBOL TABLE
  LABEL                             VALUE 

TRISA1                            00000001
TRISA2                            00000002
TRISA3                            00000003
TRISA4                            00000004
TRISA5                            00000005
TRISA6                            00000006
TRISA7                            00000007
TRISB                             00000086
TRISB0                            00000000
TRISB1                            00000001
TRISB2                            00000002
TRISB3                            00000003
TRISB4                            00000004
TRISB5                            00000005
TRISB6                            00000006
TRISB7                            00000007
TRMT                              00000001
TX9                               00000006
TX9D                              00000000
TXEN                              00000005
TXIE                              00000004
TXIF                              00000004
TXREG                             00000019
TXSTA                             00000098
UNIDADE                           00000022
VR0                               00000000
VR1                               00000001
VR2                               00000002
VR3                               00000003
VRCON                             0000009F
VREN                              00000007
VROE                              00000006
VRR                               00000005
V_FILTRO                          00000064
W                                 00000000
WR                                00000001
WREN                              00000002
WRERR                             00000003
W_TEMP                            00000024
Z                                 00000002
_BODEN_OFF                        00003FBF
_BODEN_ON                         00003FFF
_BOREN_OFF                        00003FBF
_BOREN_ON                         00003FFF
_CONFIG                           00002007
_CPD_OFF                          00003FFF
_CPD_ON                           00003EFF
_CP_OFF                           00003FFF
_CP_ON                            00001FFF
_DEVID1                           00002006
_ER_OSC_CLKOUT                    00003FFF
_ER_OSC_NOCLKOUT                  00003FFE
_EXTCLK_OSC                       00003FEF
MPASM 5.71  /HOME/MATHEUS/DOCUMENTOS/DISCIPL   9-4-2024  11:31:05         PAGE  9


SYMBOL TABLE
  LABEL                             VALUE 

_FOSC_ECIO                        00003FEF
_FOSC_EXTRCCLK                    00003FFF
_FOSC_EXTRCIO                     00003FFE
_FOSC_HS                          00003FEE
_FOSC_INTOSCCLK                   00003FFD
_FOSC_INTOSCIO                    00003FFC
_FOSC_LP                          00003FEC
_FOSC_XT                          00003FED
_HS_OSC                           00003FEE
_IDLOC0                           00002000
_IDLOC1                           00002001
_IDLOC2                           00002002
_IDLOC3                           00002003
_INTOSC_OSC_CLKOUT                00003FFD
_INTOSC_OSC_NOCLKOUT              00003FFC
_INTRC_OSC_CLKOUT                 00003FFD
_INTRC_OSC_NOCLKOUT               00003FFC
_LP_OSC                           00003FEC
_LVP_OFF                          00003F7F
_LVP_ON                           00003FFF
_MCLRE_OFF                        00003FDF
_MCLRE_ON                         00003FFF
_PWRTE_OFF                        00003FFF
_PWRTE_ON                         00003FF7
_RC_OSC_CLKOUT                    00003FFF
_RC_OSC_NOCLKOUT                  00003FFE
_WDTE_OFF                         00003FFB
_WDTE_ON                          00003FFF
_WDT_OFF                          00003FFB
_WDT_ON                           00003FFF
_XT_OSC                           00003FED
__16F628A                         00000001

Errors   :     0
Warnings :     1 reported,     0 suppressed
Messages :     3 reported,     0 suppressed

