MPASM 5.71  /HOME/MATHEUS/DOCUMENTOS/DISCIPL   9-8-2024  22:46:48         PAGE  1


LOC  OBJECT CODE     LINE SOURCE TEXT
  VALUE

                      00001 ; MATHEUS CALEGARI MOIZINHO - 09/2024
                      00002     
                      00003 ; PIC16F877A Configuration Bit Settings
                      00004 
                      00005 ; Assembly source line config statements
                      00006 
                      00007 #include "p16f877a.inc"
                      00001         LIST
                      00002 
                      00003 ;==========================================================================
                      00004 ; Build date : Nov 17 2016
                      00005 ;  MPASM PIC16F877A processor include
                      00006 ; 
                      00007 ;  (c) Copyright 1999-2016 Microchip Technology, All rights reserved
                      00008 ;==========================================================================
                      00009 
                      00567         LIST
                      00008 
                      00009 ; CONFIG
                      00010 ; __config 0xFF71
2007   3F71           00011  __CONFIG _FOSC_XT & _WDTE_OFF & _PWRTE_ON & _BOREN_ON & _LVP_OFF & _CPD_OFF & _WRT_OFF & _CP_OFF
                      00012  
                      00013 
                      00014 #define BANK0   BCF STATUS,RP0
                      00015 #define BANK1   BSF STATUS,RP0 
                      00016  
                      00017     CBLOCK  0x20
  00000020            00018         UNIDADE
  00000021            00019         DEZENA
  00000022            00020         CENTENA
  00000023            00021         MILHAR
  00000024            00022         FLAGS
  00000025            00023         W_TEMP
  00000026            00024         S_TEMP
  00000027            00025         TMR_01S
                      00026     ENDC
                      00027     
                      00028 ;variaveis
                      00029 #define CONTEI          FLAGS,0
                      00030 #define TROCA_DISPLAY   FLAGS,1
                      00031 
                      00032 ;entradas
                      00033 #define B_UP            PORTB,0
                      00034 #define B_STOP          PORTB,1
                      00035 #define B_RESET         PORTB,2
                      00036 
                      00037 ;saidas
                      00038 #define DISPLAY         PORTD
                      00039 #define D_UNIDADE       PORTB,4   
                      00040 #define D_DEZENA        PORTB,5  
                      00041 #define D_CENTENA       PORTB,6
                      00042 #define D_MILHAR        PORTB,7
                      00043     
MPASM 5.71  /HOME/MATHEUS/DOCUMENTOS/DISCIPL   9-8-2024  22:46:48         PAGE  2


LOC  OBJECT CODE     LINE SOURCE TEXT
  VALUE

                      00044 ;constantes
  00000083            00045 V_TMR0      equ         .131
                      00046         
                      00047             
                      00048 RES_VECT  CODE    0x0000   
                      00049   
0000   2???           00050     GOTO    START           
                      00051     
                      00052 
                      00053 INT_VECT  CODE    0x0004   
                      00054   
0004   00A5           00055     MOVWF   W_TEMP          
0005   0803           00056     MOVF    STATUS,W        
0006   00A6           00057     MOVWF   S_TEMP          
                      00058     
0007   1D0B           00059     BTFSS   INTCON,T0IF     
0008   2???           00060     GOTO    SAI_INTERRUPCAO 
                      00061     
0009   110B           00062     BCF     INTCON,T0IF     
                      00063     
000A   3083           00064     MOVLW   V_TMR0          
000B   0781           00065     ADDWF   TMR0,F          
                      00066     
000C   14A4           00067     BSF     TROCA_DISPLAY  
Message[305]: Using default destination of 1 (file).
000D   0AA7           00068     INCF    TMR_01S
                      00069     
                      00070     
000E                  00071 SAI_INTERRUPCAO
                      00072     
000E   0826           00073     MOVF    S_TEMP,W        
000F   0083           00074     MOVWF   STATUS          
0010   0825           00075     MOVF    W_TEMP,W    
                      00076     
0011   0009           00077     RETFIE
                      00078     
                      00079 
0012                  00080 START
                      00081     
0012   1683           00082     BANK1
Message[302]: Register in operand not in bank 0.  Ensure that bank bits are correct.
0013   0188           00083     CLRF    TRISD       
0014   300F           00084     MOVLW   B'00001111'
Message[302]: Register in operand not in bank 0.  Ensure that bank bits are correct.
0015   0086           00085     MOVWF   TRISB
0016   30D4           00086     MOVLW   B'11010100'                           
Message[302]: Register in operand not in bank 0.  Ensure that bank bits are correct.
0017   0081           00087     MOVWF   OPTION_REG      
0018   1283           00088     BANK0
                      00089     
0019   01A0           00090     CLRF    UNIDADE        
001A   01A1           00091     CLRF    DEZENA
001B   01A2           00092     CLRF    CENTENA
MPASM 5.71  /HOME/MATHEUS/DOCUMENTOS/DISCIPL   9-8-2024  22:46:48         PAGE  3


LOC  OBJECT CODE     LINE SOURCE TEXT
  VALUE

001C   01A3           00093     CLRF    MILHAR
                      00094         
001D   01A4           00095     CLRF    FLAGS           
001E   168B           00096     BSF     INTCON,T0IE     
001F   178B           00097     BSF     INTCON,GIE   
                      00098 
                      00099     
0020                  00100 LACO_PRINCIPAL
                      00101     
0020   18A4           00102     BTFSC   TROCA_DISPLAY       
0021   2???           00103     CALL    ATUALIZA_DISPLAY    
                      00104     
0022   1D06           00105     BTFSS   B_RESET             
0023   2???           00106     GOTO    B_RESET_ACIONADO    
                      00107     
0024   1C06           00108     BTFSS   B_UP
0025   2???           00109     GOTO    B_INCREMENTAR
                      00110     
0026   2???           00111     GOTO    LACO_PRINCIPAL
                      00112     
                      00113     
0027                  00114 B_INCREMENTAR
                      00115     
0027   1C86           00116     BTFSS   B_STOP
0028   2???           00117     GOTO    LACO_PRINCIPAL
                      00118     
0029   18A4           00119     BTFSC   TROCA_DISPLAY                       ;testa se já passou 4ms
002A   2???           00120     CALL    ATUALIZA_DISPLAY                    ;se já passou 4ms, chama a subrotina ATUALIZA_DISPLAY
                      00121     
002B   3032           00122     MOVLW   .50                                 ; Carrega o valor 50 no registrador W (250 é 1s em 4hz, 
                            portanto 50 é 0,1s em 8hz)
002C   0227           00123     SUBWF   TMR_01S,W                           ; Subtrai W de MINHA_VAR e armazena o resultado em W
002D   1D03           00124     BTFSS   STATUS,Z                            ; Testa se o bit Z (zero) no STATUS está setado (resulta
                            do da subtração foi zero)
002E   2???           00125     GOTO    B_INCREMENTAR                       ; Se Z = 0, a variável não é igual a 50
                      00126 
002F   01A7           00127     CLRF    TMR_01S
                      00128 
0030   0AA0           00129     INCF    UNIDADE,F                           ;UNIDADE++
0031   300A           00130     MOVLW   .10                                 ;W = 10
0032   0220           00131     SUBWF   UNIDADE,W                           ;W = UNIDADE - W
0033   1C03           00132     BTFSS   STATUS,C                            ;testa se o resultado é negativo (UNIDADE < 10)
0034   2???           00133     GOTO    B_INCREMENTAR                       ;se negativo, pula para LACO_PRINCIPAL
                      00134 
0035   01A0           00135     CLRF    UNIDADE                             ;UNIDADE = 0
                      00136 
0036   0AA1           00137     INCF    DEZENA,F                            ;DEZENA++
0037   300A           00138     MOVLW   .10                                 ;W = 10
0038   0221           00139     SUBWF   DEZENA,W                            ;W = DEZENA - W
0039   1C03           00140     BTFSS   STATUS,C                            ;testa se o resultado é negativo (DEZENA < 10)
003A   2???           00141     GOTO    B_INCREMENTAR
                      00142     
003B   01A1           00143     CLRF    DEZENA
MPASM 5.71  /HOME/MATHEUS/DOCUMENTOS/DISCIPL   9-8-2024  22:46:48         PAGE  4


LOC  OBJECT CODE     LINE SOURCE TEXT
  VALUE

                      00144     
003C   0AA2           00145     INCF    CENTENA,F                           ;CENTENA++
003D   300A           00146     MOVLW   .10                                 ;W = 10
003E   0222           00147     SUBWF   CENTENA,W                           ;W = CENTENA - W
003F   1C03           00148     BTFSS   STATUS,C                            ;testa se o resultado é negativo (CENTENA < 10)
0040   2???           00149     GOTO    B_INCREMENTAR
                      00150     
0041   01A2           00151     CLRF    CENTENA
                      00152     
0042   0AA3           00153     INCF    MILHAR,F                            ;MILHAR++
0043   300A           00154     MOVLW   .10                                 ;W = 10
0044   0223           00155     SUBWF   MILHAR,W                            ;W = MILHAR - W
0045   1803           00156     BTFSC   STATUS,C                            ;testa se o resultado é negativo (MILHAR < 10)
                      00157 
0046   01A3           00158     CLRF    MILHAR                              ;se positivo MILHAR = 0
                      00159 
0047   2???           00160     GOTO    B_INCREMENTAR                       ;pula para LACO_PRINCIPAL
                      00161     
                      00162     
0048                  00163 B_RESET_ACIONADO
                      00164     
0048   01A0           00165     CLRF    UNIDADE             
0049   01A1           00166     CLRF    DEZENA              
004A   01A2           00167     CLRF    CENTENA
004B   01A3           00168     CLRF    MILHAR
004C   2???           00169     GOTO    LACO_PRINCIPAL      
                      00170 
                      00171     
004D                  00172 ATUALIZA_DISPLAY
                      00173     
004D   10A4           00174     BCF     TROCA_DISPLAY                       ;TROCA_DISPLAY = 0
                      00175     
004E   1F06           00176     BTFSS   D_CENTENA                           ;testa se a CENTENA está acesa
004F   2???           00177     GOTO    ACENDE_CENTENA                      ;se QUAL_DISPLAY = 0, pula para ACENDE_CENTENA
                      00178     
0050   1306           00179     BCF     D_CENTENA
0051   0823           00180     MOVF    MILHAR,W                            ;W = CENTENA
                      00181     
0052   2???           00182     CALL    BUSCA_CODIGO                        ;chama a subrotina para obter o código de 7 segmentos
                      00183     
0053   0088           00184     MOVWF   DISPLAY                             ;DISPLAY = W -> PORTB = W
0054   1786           00185     BSF     D_MILHAR
                      00186     
0055   0008           00187     RETURN                                      ;volta para o programa principal
                      00188     
                      00189     
0056                  00190 ACENDE_CENTENA
                      00191     
0056   1386           00192     BCF     D_MILHAR
0057   1E86           00193     BTFSS   D_DEZENA
0058   2???           00194     GOTO    ACENDE_DEZENA
0059   1286           00195     BCF     D_DEZENA
005A   0822           00196     MOVF    CENTENA,W                           ;W = CENTENA
MPASM 5.71  /HOME/MATHEUS/DOCUMENTOS/DISCIPL   9-8-2024  22:46:48         PAGE  5


LOC  OBJECT CODE     LINE SOURCE TEXT
  VALUE

005B   2???           00197     CALL    BUSCA_CODIGO                        ;chama a subrotina para obter o código de 7 segmentos
005C   0088           00198     MOVWF   DISPLAY
005D   1706           00199     BSF     D_CENTENA
005E   0008           00200     RETURN
                      00201     
                      00202     
005F                  00203 ACENDE_DEZENA
                      00204     
005F   1306           00205     BCF     D_CENTENA
0060   1E06           00206     BTFSS   D_UNIDADE
0061   2???           00207     GOTO    ACENDE_UNIDADE
0062   1206           00208     BCF     D_UNIDADE
0063   0821           00209     MOVF    DEZENA,W                            ;W = DEZENA
0064   2???           00210     CALL    BUSCA_CODIGO                        ;chama a subrotina para obter o código de 7 segmentos
0065   0088           00211     MOVWF   DISPLAY
0066   1686           00212     BSF     D_DEZENA
0067   0008           00213     RETURN
                      00214     
                      00215     
0068                  00216 ACENDE_UNIDADE
                      00217     
0068   1286           00218     BCF     D_DEZENA
0069   0820           00219     MOVF    UNIDADE,W                           ;W = UNIDADE
006A   2???           00220     CALL    BUSCA_CODIGO                        ;chama a subrotina para obter o código de 7 segmentos
006B   0088           00221     MOVWF   DISPLAY
006C   1606           00222     BSF     D_UNIDADE
006D   0008           00223     RETURN
                      00224     
                      00225     
006E                  00226 BUSCA_CODIGO
                      00227     
006E   0782           00228     ADDWF   PCL,F               ;PCL = PCL + W
006F   343F           00229     RETLW   0x3F                ;retorna da subrotina com W = 0xFE
0070   3406           00230     RETLW   0x06                ;retorna da subrotina com W = 0x38    
0071   345B           00231     RETLW   0x5B                ;retorna da subrotina com W = 0xDD    
0072   344F           00232     RETLW   0x4F                ;retorna da subrotina com W = 0x7D
0073   3466           00233     RETLW   0x66                ;retorna da subrotina com W = 0x3B
0074   346D           00234     RETLW   0x6D                ;retorna da subrotina com W = 0x77    
0075   347D           00235     RETLW   0x7D                ;retorna da subrotina com W = 0xF7    
0076   3407           00236     RETLW   0x07                ;retorna da subrotina com W = 0x3C    
0077   347F           00237     RETLW   0x7F                ;retorna da subrotina com W = 0xFF
0078   346F           00238     RETLW   0x6F                ;retorna da subrotina com W = 0x7F    
                      00239     
                      00240     
3F71                  00241     END
MPASM 5.71  /HOME/MATHEUS/DOCUMENTOS/DISCIPL   9-8-2024  22:46:48         PAGE  6


SYMBOL TABLE
  LABEL                             VALUE 

ACENDE_CENTENA                    00000056
ACENDE_DEZENA                     0000005F
ACENDE_UNIDADE                    00000068
ACKDT                             00000005
ACKEN                             00000004
ACKSTAT                           00000006
ADCON0                            0000001F
ADCON1                            0000009F
ADCS0                             00000006
ADCS1                             00000007
ADCS2                             00000006
ADDEN                             00000003
ADFM                              00000007
ADIE                              00000006
ADIF                              00000006
ADON                              00000000
ADRESH                            0000001E
ADRESL                            0000009E
ATUALIZA_DISPLAY                  0000004D
BANK0                             BCF STATUS,RP0
BANK1                             BSF STATUS,RP0
BCLIE                             00000003
BCLIF                             00000003
BF                                00000000
BRGH                              00000002
BUSCA_CODIGO                      0000006E
B_INCREMENTAR                     00000027
B_RESET                           PORTB,2
B_RESET_ACIONADO                  00000048
B_STOP                            PORTB,1
B_UP                              PORTB,0
C                                 00000000
C1INV                             00000004
C1OUT                             00000006
C2INV                             00000005
C2OUT                             00000007
CCP1CON                           00000017
CCP1IE                            00000002
CCP1IF                            00000002
CCP1M0                            00000000
CCP1M1                            00000001
CCP1M2                            00000002
CCP1M3                            00000003
CCP1X                             00000005
CCP1Y                             00000004
CCP2CON                           0000001D
CCP2IE                            00000000
CCP2IF                            00000000
CCP2M0                            00000000
CCP2M1                            00000001
CCP2M2                            00000002
CCP2M3                            00000003
CCP2X                             00000005
MPASM 5.71  /HOME/MATHEUS/DOCUMENTOS/DISCIPL   9-8-2024  22:46:48         PAGE  7


SYMBOL TABLE
  LABEL                             VALUE 

CCP2Y                             00000004
CCPR1                             00000015
CCPR1H                            00000016
CCPR1L                            00000015
CCPR2                             0000001B
CCPR2H                            0000001C
CCPR2L                            0000001B
CENTENA                           00000022
CHS0                              00000003
CHS1                              00000004
CHS2                              00000005
CIS                               00000003
CKE                               00000006
CKP                               00000004
CM0                               00000000
CM1                               00000001
CM2                               00000002
CMCON                             0000009C
CMIE                              00000006
CMIF                              00000006
CONTEI                            FLAGS,0
CREN                              00000004
CSRC                              00000007
CVR0                              00000000
CVR1                              00000001
CVR2                              00000002
CVR3                              00000003
CVRCON                            0000009D
CVREN                             00000007
CVROE                             00000006
CVRR                              00000005
D                                 00000005
DATA_ADDRESS                      00000005
DC                                00000001
DEZENA                            00000021
DISPLAY                           PORTD
D_A                               00000005
D_CENTENA                         PORTB,6
D_DEZENA                          PORTB,5
D_MILHAR                          PORTB,7
D_NOT_A                           00000005
D_UNIDADE                         PORTB,4
EEADR                             0000010D
EEADRH                            0000010F
EECON1                            0000018C
EECON2                            0000018D
EEDATA                            0000010C
EEDATH                            0000010E
EEIE                              00000004
EEIF                              00000004
EEPGD                             00000007
F                                 00000001
FERR                              00000002
MPASM 5.71  /HOME/MATHEUS/DOCUMENTOS/DISCIPL   9-8-2024  22:46:48         PAGE  8


SYMBOL TABLE
  LABEL                             VALUE 

FLAGS                             00000024
FSR                               00000004
GCEN                              00000007
GIE                               00000007
GO                                00000002
GO_DONE                           00000002
GO_NOT_DONE                       00000002
I2C_DATA                          00000005
I2C_READ                          00000002
I2C_START                         00000003
I2C_STOP                          00000004
IBF                               00000007
IBOV                              00000005
INDF                              00000000
INTCON                            0000000B
INTE                              00000004
INTEDG                            00000006
INTF                              00000001
IRP                               00000007
LACO_PRINCIPAL                    00000020
MILHAR                            00000023
NOT_A                             00000005
NOT_ADDRESS                       00000005
NOT_BO                            00000000
NOT_BOR                           00000000
NOT_DONE                          00000002
NOT_PD                            00000003
NOT_POR                           00000001
NOT_RBPU                          00000007
NOT_RC8                           00000006
NOT_T1SYNC                        00000002
NOT_TO                            00000004
NOT_TX8                           00000006
NOT_W                             00000002
NOT_WRITE                         00000002
OBF                               00000006
OERR                              00000001
OPTION_REG                        00000081
P                                 00000004
PCFG0                             00000000
PCFG1                             00000001
PCFG2                             00000002
PCFG3                             00000003
PCL                               00000002
PCLATH                            0000000A
PCON                              0000008E
PEIE                              00000006
PEN                               00000002
PIE1                              0000008C
PIE2                              0000008D
PIR1                              0000000C
PIR2                              0000000D
PORTA                             00000005
MPASM 5.71  /HOME/MATHEUS/DOCUMENTOS/DISCIPL   9-8-2024  22:46:48         PAGE  9


SYMBOL TABLE
  LABEL                             VALUE 

PORTB                             00000006
PORTC                             00000007
PORTD                             00000008
PORTE                             00000009
PR2                               00000092
PS0                               00000000
PS1                               00000001
PS2                               00000002
PSA                               00000003
PSPIE                             00000007
PSPIF                             00000007
PSPMODE                           00000004
R                                 00000002
RA0                               00000000
RA1                               00000001
RA2                               00000002
RA3                               00000003
RA4                               00000004
RA5                               00000005
RB0                               00000000
RB1                               00000001
RB2                               00000002
RB3                               00000003
RB4                               00000004
RB5                               00000005
RB6                               00000006
RB7                               00000007
RBIE                              00000003
RBIF                              00000000
RC0                               00000000
RC1                               00000001
RC2                               00000002
RC3                               00000003
RC4                               00000004
RC5                               00000005
RC6                               00000006
RC7                               00000007
RC8_9                             00000006
RC9                               00000006
RCD8                              00000000
RCEN                              00000003
RCIE                              00000005
RCIF                              00000005
RCREG                             0000001A
RCSTA                             00000018
RD                                00000000
RD0                               00000000
RD1                               00000001
RD2                               00000002
RD3                               00000003
RD4                               00000004
RD5                               00000005
RD6                               00000006
MPASM 5.71  /HOME/MATHEUS/DOCUMENTOS/DISCIPL   9-8-2024  22:46:48         PAGE 10


SYMBOL TABLE
  LABEL                             VALUE 

RD7                               00000007
RE0                               00000000
RE1                               00000001
RE2                               00000002
READ_WRITE                        00000002
RP0                               00000005
RP1                               00000006
RSEN                              00000001
RX9                               00000006
RX9D                              00000000
R_NOT_W                           00000002
R_W                               00000002
S                                 00000003
SAI_INTERRUPCAO                   0000000E
SEN                               00000000
SMP                               00000007
SPBRG                             00000099
SPEN                              00000007
SREN                              00000005
SSPADD                            00000093
SSPBUF                            00000013
SSPCON                            00000014
SSPCON2                           00000091
SSPEN                             00000005
SSPIE                             00000003
SSPIF                             00000003
SSPM0                             00000000
SSPM1                             00000001
SSPM2                             00000002
SSPM3                             00000003
SSPOV                             00000006
SSPSTAT                           00000094
START                             00000012
STATUS                            00000003
SYNC                              00000004
S_TEMP                            00000026
T0CS                              00000005
T0IE                              00000005
T0IF                              00000002
T0SE                              00000004
T1CKPS0                           00000004
T1CKPS1                           00000005
T1CON                             00000010
T1INSYNC                          00000002
T1OSCEN                           00000003
T1SYNC                            00000002
T2CKPS0                           00000000
T2CKPS1                           00000001
T2CON                             00000012
TMR0                              00000001
TMR0IE                            00000005
TMR0IF                            00000002
TMR1                              0000000E
MPASM 5.71  /HOME/MATHEUS/DOCUMENTOS/DISCIPL   9-8-2024  22:46:48         PAGE 11


SYMBOL TABLE
  LABEL                             VALUE 

TMR1CS                            00000001
TMR1H                             0000000F
TMR1IE                            00000000
TMR1IF                            00000000
TMR1L                             0000000E
TMR1ON                            00000000
TMR2                              00000011
TMR2IE                            00000001
TMR2IF                            00000001
TMR2ON                            00000002
TMR_01S                           00000027
TOUTPS0                           00000003
TOUTPS1                           00000004
TOUTPS2                           00000005
TOUTPS3                           00000006
TRISA                             00000085
TRISA0                            00000000
TRISA1                            00000001
TRISA2                            00000002
TRISA3                            00000003
TRISA4                            00000004
TRISA5                            00000005
TRISB                             00000086
TRISB0                            00000000
TRISB1                            00000001
TRISB2                            00000002
TRISB3                            00000003
TRISB4                            00000004
TRISB5                            00000005
TRISB6                            00000006
TRISB7                            00000007
TRISC                             00000087
TRISC0                            00000000
TRISC1                            00000001
TRISC2                            00000002
TRISC3                            00000003
TRISC4                            00000004
TRISC5                            00000005
TRISC6                            00000006
TRISC7                            00000007
TRISD                             00000088
TRISD0                            00000000
TRISD1                            00000001
TRISD2                            00000002
TRISD3                            00000003
TRISD4                            00000004
TRISD5                            00000005
TRISD6                            00000006
TRISD7                            00000007
TRISE                             00000089
TRISE0                            00000000
TRISE1                            00000001
TRISE2                            00000002
MPASM 5.71  /HOME/MATHEUS/DOCUMENTOS/DISCIPL   9-8-2024  22:46:48         PAGE 12


SYMBOL TABLE
  LABEL                             VALUE 

TRMT                              00000001
TROCA_DISPLAY                     FLAGS,1
TX8_9                             00000006
TX9                               00000006
TX9D                              00000000
TXD8                              00000000
TXEN                              00000005
TXIE                              00000004
TXIF                              00000004
TXREG                             00000019
TXSTA                             00000098
UA                                00000001
UNIDADE                           00000020
V_TMR0                            00000083
W                                 00000000
WCOL                              00000007
WR                                00000001
WREN                              00000002
WRERR                             00000003
W_TEMP                            00000025
Z                                 00000002
_BODEN_OFF                        00003FBF
_BODEN_ON                         00003FFF
_BOREN_OFF                        00003FBF
_BOREN_ON                         00003FFF
_CONFIG                           00002007
_CPD_OFF                          00003FFF
_CPD_ON                           00003EFF
_CP_ALL                           00001FFF
_CP_OFF                           00003FFF
_CP_ON                            00001FFF
_DEBUG_OFF                        00003FFF
_DEBUG_ON                         000037FF
_DEVID1                           00002006
_FOSC_EXTRC                       00003FFF
_FOSC_HS                          00003FFE
_FOSC_LP                          00003FFC
_FOSC_XT                          00003FFD
_HS_OSC                           00003FFE
_IDLOC0                           00002000
_IDLOC1                           00002001
_IDLOC2                           00002002
_IDLOC3                           00002003
_LP_OSC                           00003FFC
_LVP_OFF                          00003F7F
_LVP_ON                           00003FFF
_PWRTE_OFF                        00003FFF
_PWRTE_ON                         00003FF7
_RC_OSC                           00003FFF
_WDTE_OFF                         00003FFB
_WDTE_ON                          00003FFF
_WDT_OFF                          00003FFB
_WDT_ON                           00003FFF
MPASM 5.71  /HOME/MATHEUS/DOCUMENTOS/DISCIPL   9-8-2024  22:46:48         PAGE 13


SYMBOL TABLE
  LABEL                             VALUE 

_WRT_1FOURTH                      00003BFF
_WRT_256                          00003DFF
_WRT_HALF                         000039FF
_WRT_OFF                          00003FFF
_XT_OSC                           00003FFD
__16F877A                         00000001

Errors   :     0
Warnings :     0 reported,     0 suppressed
Messages :     4 reported,     0 suppressed

