MPASM 5.71  /HOME/MATHEUS/DOCUMENTOS/DISCIPL   9-2-2024  23:05:37         PAGE  1


LOC  OBJECT CODE     LINE SOURCE TEXT
  VALUE

                      00001 ; TODO INSERT CONFIG CODE HERE USING CONFIG BITS GENERATOR
                      00002 
                      00003 
                      00004 ; PIC16F628A Configuration Bit Settings
                      00005 
                      00006 ; Assembly source line config statements
                      00007 
                      00008 #include "p16f628a.inc"
                      00001         LIST
                      00002 
                      00003 ;==========================================================================
                      00004 ; Build date : Nov 17 2016
                      00005 ;  MPASM PIC16F628A processor include
                      00006 ; 
                      00007 ;  (c) Copyright 1999-2016 Microchip Technology, All rights reserved
                      00008 ;==========================================================================
                      00009 
                      00386         LIST
                      00009 
                      00010 ; CONFIG
                      00011 ; __config 0xFF70
2007   3F70           00012     __CONFIG _FOSC_INTOSCIO & _WDTE_OFF & _PWRTE_ON & _MCLRE_ON & _BOREN_ON & _LVP_OFF & _CPD_OFF & _CP_
                            OFF
                      00013 
                      00014 
                      00015 #define BANK0   BCF STATUS,RP0
                      00016 #define BANK1   BSF STATUS,RP0
                      00017 
                      00018     CBLOCK 0X20
  00000020            00019         UNIDADE
  00000021            00020         DEZENA
  00000022            00021         FLAGS
  00000023            00022         W_TEMP
  00000024            00023         S_TEMP
  00000025            00024         TMR_1S
                      00025     ENDC
                      00026 
                      00027 ;variáveis
                      00028 #define     TROCA_DISPLAY   FLAGS,1
                      00029 
                      00030 
                      00031 ;entradas
                      00032 #define     B_INC           PORTA,1
                      00033 #define     B_DEC           PORTA,2
                      00034 #define     B_STOP          PORTA,3
                      00035 #define     B_RESET         PORTA,4
                      00036 
                      00037 ;saídas
                      00038 #define     DISPLAY         PORTB
                      00039 #define     QUAL_DISPLAY    PORTB,4
                      00040 
                      00041 ;constantes
  00000083            00042 V_TMR0      equ             .131
MPASM 5.71  /HOME/MATHEUS/DOCUMENTOS/DISCIPL   9-2-2024  23:05:37         PAGE  2


LOC  OBJECT CODE     LINE SOURCE TEXT
  VALUE

                      00043 
                      00044 
                      00045 RES_VECT    CODE    0x0000                      ; processor reset vector
                      00046 
0000   2???           00047     GOTO    START                               ;pula a área de armazenamento de iterrupção
                      00048 
                      00049 
                      00050 INT_VEC     CODE    0X0004                      ;vetor de iterrupção
                      00051 
0004   00A3           00052     MOVWF   W_TEMP                              ;salvar w em W_TEMP
0005   0803           00053     MOVF    STATUS,W                            ;w = STATUS
0006   00A4           00054     MOVWF   S_TEMP                              ;salvar SATATUS em S_TEMP
0007   1D0B           00055     BTFSS   INTCON,T0IF                         ;testa se a iterrupção foi por TIMER0
0008   2???           00056     GOTO    SAI_ITERRUPCAO                      ;se não foi, pula para SAI_ITERRUPCAO
0009   110B           00057     BCF     INTCON,T0IF                         ;limpa o bit de indicação de iterrupção por TIMER0
000A   3083           00058     MOVLW   V_TMR0                              ;W = V_TMR0 -> W = 131
000B   0781           00059     ADDWF   TMR0,F                              ;TMR0 = TMR0 + V_TMR0 -> TMR0 = TMR0 + 131
                      00060 
Message[305]: Using default destination of 1 (file).
000C   0AA5           00061     INCF    TMR_1S
                      00062 
000D   14A2           00063     BSF     TROCA_DISPLAY                       ;TROCA_DISPLAY = 1
                      00064 
                      00065 
000E                  00066 SAI_ITERRUPCAO
                      00067 
000E   0824           00068     MOVF    S_TEMP,W                            ;W = S_TEMP
000F   0083           00069     MOVWF   STATUS                              ;restaura STATUS
0010   0823           00070     MOVF    W_TEMP,W                            ;restaura W
0011   0009           00071     RETFIE
                      00072 
                      00073 
0012                  00074 START
                      00075 
0012   1683           00076     BANK1
Message[302]: Register in operand not in bank 0.  Ensure that bank bits are correct.
0013   0186           00077     CLRF    TRISB                               ;configura todo o PORTB como saída
0014   30D4           00078     MOVLW   B'11010100'                         ;palavra de configuração do TIMER0
                      00079                                                 ;bit7: ativa resistores PULL_UP do PORTB
                      00080                                                 ;bit6: define o tipo de borda para RB0
                      00081                                                 ;bit5: define origem do clock do TIMER0
                      00082                                                 ;bit4: define borda do clock do TIMER0
                      00083                                                 ;bit3: quem usa o PRESCALER - TMR0 ou WDT
                      00084                                                 ;bit2..0: define PRESCALER - 100 - 1:32
Message[302]: Register in operand not in bank 0.  Ensure that bank bits are correct.
0015   0081           00085     MOVWF   OPTION_REG                          ;carrega a configuração do TIMER0
0016   1283           00086     BANK0
0017   01A0           00087     CLRF    UNIDADE                             ;UNIDADE = 0
0018   01A1           00088     CLRF    DEZENA                              ;DEZENA = 0
                      00089 
0019   01A2           00090     CLRF    FLAGS                               ;FLAGS = 0
001A   01A5           00091     CLRF    TMR_1S
001B   168B           00092     BSF     INTCON,T0IE                         ;habilita o atendimento de iterrupção por TIMER0
MPASM 5.71  /HOME/MATHEUS/DOCUMENTOS/DISCIPL   9-2-2024  23:05:37         PAGE  3


LOC  OBJECT CODE     LINE SOURCE TEXT
  VALUE

001C   178B           00093     BSF     INTCON,GIE                          ;habilita o atenddimento de iterrupções
                      00094 
                      00095 ;    MOVLW   .3
                      00096 ;    MOVWF   DEZENA ; valendo 3 haha
                      00097 
001D                  00098 LACO_PRINCIPAL
                      00099 
001D   18A2           00100     BTFSC   TROCA_DISPLAY                       ;testa se já passou 4ms
001E   2???           00101     CALL    ATUALIZA_DISPLAY                    ;se já passou 4ms, chama a subrotina ATUALIZA_DISPLAY
                      00102 
001F   1E05           00103     BTFSS   B_RESET                             ;testa se B_RESET está pressionado
0020   2???           00104     GOTO    B_RESET_ACIONADO                    ;se pressionado, pula para B_RESET_ACIONADO
                      00105 
0021   1C85           00106     BTFSS   B_INC
0022   2???           00107     GOTO    B_INCREMENTAR
                      00108 
0023   1D05           00109     BTFSS   B_DEC
0024   2???           00110     GOTO    B_DECREMENTAR
                      00111 
0025   2???           00112     GOTO    LACO_PRINCIPAL
                      00113 
                      00114 
0026                  00115 PADRAO
                      00116 
0026   18A2           00117     BTFSC   TROCA_DISPLAY                       ;testa se já passou 4ms
0027   2???           00118     CALL    ATUALIZA_DISPLAY                    ;se já passou 4ms, chama a subrotina ATUALIZA_DISPLAY
                      00119 
0028   1D85           00120     BTFSS   B_STOP
0029   2???           00121     GOTO    LACO_PRINCIPAL
                      00122 
002A   0008           00123     RETURN
                      00124 
                      00125 
002B                  00126 B_INCREMENTAR
                      00127 
002B   2???           00128     CALL    PADRAO
                      00129 
002C   30FA           00130     MOVLW   .250                                ; Carrega o valor 250 no registrador W
002D   0225           00131     SUBWF   TMR_1S,W                            ; Subtrai W de MINHA_VAR e armazena o resultado em W
002E   1D03           00132     BTFSS   STATUS,Z                            ; Testa se o bit Z (zero) no STATUS está setado (resulta
                            do da subtração foi zero)
002F   2???           00133     GOTO    B_INCREMENTAR                       ; Se Z = 0, a variável não é igual a 250
                      00134 
0030   01A5           00135     CLRF    TMR_1S
                      00136 
                      00137 
0031   0AA0           00138     INCF    UNIDADE,F                           ;UNIDADE++
0032   300A           00139     MOVLW   .10                                 ;W = 10
0033   0220           00140     SUBWF   UNIDADE,W                           ;W = UNIDADE - W
0034   1C03           00141     BTFSS   STATUS,C                            ;testa se o resultado é negativo (UNIDADE < 10)
0035   2???           00142     GOTO    B_INCREMENTAR                       ;se negativo, pula para LACO_PRINCIPAL
                      00143 
0036   01A0           00144     CLRF    UNIDADE                             ;UNIDADE = 0
MPASM 5.71  /HOME/MATHEUS/DOCUMENTOS/DISCIPL   9-2-2024  23:05:37         PAGE  4


LOC  OBJECT CODE     LINE SOURCE TEXT
  VALUE

                      00145 
0037   0AA1           00146     INCF    DEZENA,F                            ;DEZENA++
0038   300A           00147     MOVLW   .10                                 ;W = 10
0039   0221           00148     SUBWF   DEZENA,W                            ;W = DEZENA - W
003A   1803           00149     BTFSC   STATUS,C                            ;testa se o resultado é negativo (DEZENA < 10)
                      00150 
003B   01A1           00151     CLRF    DEZENA                              ;se positivo DEZENA = 0
                      00152 
003C   2???           00153     GOTO    B_INCREMENTAR                       ;pula para LACO_PRINCIPAL
                      00154 
                      00155 
003D                  00156 B_DECREMENTAR
                      00157 
003D   2???           00158     CALL    PADRAO
                      00159 
003E   30FA           00160     MOVLW   .250
003F   0225           00161     SUBWF   TMR_1S,W
0040   1D03           00162     BTFSS   STATUS,Z
0041   2???           00163     GOTO    B_DECREMENTAR
                      00164 
0042   01A5           00165     CLRF    TMR_1S
                      00166 
                      00167 
0043   03A0           00168     DECF    UNIDADE,F            ; Decrementa a UNIDADE
0044   0820           00169     MOVF    UNIDADE,W            ; Move o valor de UNIDADE para W
0045   3AFF           00170     XORLW   0xFF                ; Verifica se UNIDADE == FF (equivalente a -1)
0046   1D03           00171     BTFSS   STATUS,Z             ; Se UNIDADE não for -1 (FF), continua o loop
0047   2???           00172     GOTO    B_DECREMENTAR
                      00173 
0048   3009           00174     MOVLW   .9                   ; Se UNIDADE foi para -1 (FF), reinicia com 9
0049   00A0           00175     MOVWF   UNIDADE
                      00176 
004A   03A1           00177     DECF    DEZENA,F             ; Decrementa a DEZENA
004B   0821           00178     MOVF    DEZENA,W             ; Move o valor de DEZENA para W
004C   3AFF           00179     XORLW   0xFF                ; Verifica se DEZENA == FF
004D   1D03           00180     BTFSS   STATUS,Z             ; Se DEZENA não for -1, continua o loop
004E   2???           00181     GOTO    B_DECREMENTAR
                      00182 
004F   3009           00183     MOVLW   .9                   ; Se DEZENA foi para -1, reinicia com 9
0050   00A1           00184     MOVWF   DEZENA
                      00185 
0051   2???           00186     GOTO    B_DECREMENTAR        ; Retorna para o loop principal de decremento
                      00187 
                      00188 
0052                  00189 B_RESET_ACIONADO
                      00190 
0052   01A0           00191     CLRF    UNIDADE                             ;UNIDADE = 0
0053   01A1           00192     CLRF    DEZENA                              ;DEZENA = 0
0054   2???           00193     GOTO    LACO_PRINCIPAL                      ;pula para LACO_PRINCIPAL
                      00194 
                      00195 
0055                  00196 ATUALIZA_DISPLAY
                      00197 
MPASM 5.71  /HOME/MATHEUS/DOCUMENTOS/DISCIPL   9-2-2024  23:05:37         PAGE  5


LOC  OBJECT CODE     LINE SOURCE TEXT
  VALUE

0055   10A2           00198     BCF     TROCA_DISPLAY                       ;TROCA_DISPLAY = 0
0056   1E06           00199     BTFSS   QUAL_DISPLAY                        ;testa se a UNIDADE está acesa
0057   2???           00200     GOTO    ACENDE_UNIDADE                      ;se QUAL_DISPLAY = 0, pula para ACENEDE_UNIADE
0058   0821           00201     MOVF    DEZENA,W                            ;W = DEZENA
0059   2???           00202     CALL    BUSCA_CODIGO                        ;chama a subrotina para obter o código de 7 segmentos
005A   39EF           00203     ANDLW   B'11101111'                         ;W = W & B'11101111'
                      00204 
                      00205 
005B                  00206 ESCREVE_DISPLAY
                      00207 
005B   0086           00208     MOVWF   DISPLAY                             ;DISPLAY = W -> PORTB = W
005C   0008           00209     RETURN                                      ;volta para o programa principal
                      00210 
                      00211 
005D                  00212 ACENDE_UNIDADE
                      00213 
005D   0820           00214     MOVF    UNIDADE,W                           ;W = UNIDADE
005E   2???           00215     CALL    BUSCA_CODIGO                        ;chama a subrotina para obter o código de 7 segmentos
005F   2???           00216     GOTO    ESCREVE_DISPLAY
                      00217 
                      00218 
0060                  00219 BUSCA_CODIGO
                      00220 
0060   0782           00221     ADDWF   PCL,F                   ;PCL = PCL + W
0061   34FE           00222     RETLW   0XFE                    ;retorna a subrotina com w = 0xFE
0062   3438           00223     RETLW   0X38                    ;retorna a subrotina com w = 0x38
0063   34DD           00224     RETLW   0XDD                    ;retorna a subrotina com w = 0xDD
0064   347D           00225     RETLW   0X7D                    ;retorna a subrotina com w = 0x7D
0065   343B           00226     RETLW   0X3B                    ;retorna a subrotina com w = 0x3B
0066   3477           00227     RETLW   0X77                    ;retorna a subrotina com w = 0x77
0067   34F7           00228     RETLW   0XF7                    ;retorna a subrotina com w = 0xF7
0068   343C           00229     RETLW   0X3C                    ;retorna a subrotina com w = 0x3C
0069   34FF           00230     RETLW   0XFF                    ;retorna a subrotina com w = 0xFF
006A   347F           00231     RETLW   0X7F                    ;retorna a subrotina com w = 0X7F
                      00232 
3F70                  00233     END
MPASM 5.71  /HOME/MATHEUS/DOCUMENTOS/DISCIPL   9-2-2024  23:05:37         PAGE  6


SYMBOL TABLE
  LABEL                             VALUE 

ACENDE_UNIDADE                    0000005D
ADDEN                             00000003
ADEN                              00000003
ATUALIZA_DISPLAY                  00000055
BANK0                             BCF STATUS,RP0
BANK1                             BSF STATUS,RP0
BRGH                              00000002
BUSCA_CODIGO                      00000060
B_DEC                             PORTA,2
B_DECREMENTAR                     0000003D
B_INC                             PORTA,1
B_INCREMENTAR                     0000002B
B_RESET                           PORTA,4
B_RESET_ACIONADO                  00000052
B_STOP                            PORTA,3
C                                 00000000
C1INV                             00000004
C1OUT                             00000006
C2INV                             00000005
C2OUT                             00000007
CCP1CON                           00000017
CCP1IE                            00000002
CCP1IF                            00000002
CCP1M0                            00000000
CCP1M1                            00000001
CCP1M2                            00000002
CCP1M3                            00000003
CCP1X                             00000005
CCP1Y                             00000004
CCPR1                             00000015
CCPR1H                            00000016
CCPR1L                            00000015
CIS                               00000003
CM0                               00000000
CM1                               00000001
CM2                               00000002
CMCON                             0000001F
CMIE                              00000006
CMIF                              00000006
CREN                              00000004
CSRC                              00000007
DATA_CP_OFF                       00003FFF
DATA_CP_ON                        00003EFF
DC                                00000001
DEZENA                            00000021
DISPLAY                           PORTB
EEADR                             0000009B
EECON1                            0000009C
EECON2                            0000009D
EEDATA                            0000009A
EEIE                              00000007
EEIF                              00000007
ESCREVE_DISPLAY                   0000005B
MPASM 5.71  /HOME/MATHEUS/DOCUMENTOS/DISCIPL   9-2-2024  23:05:37         PAGE  7


SYMBOL TABLE
  LABEL                             VALUE 

F                                 00000001
FERR                              00000002
FLAGS                             00000022
FSR                               00000004
GIE                               00000007
INDF                              00000000
INTCON                            0000000B
INTE                              00000004
INTEDG                            00000006
INTF                              00000001
IRP                               00000007
LACO_PRINCIPAL                    0000001D
NOT_BO                            00000000
NOT_BOD                           00000000
NOT_BOR                           00000000
NOT_PD                            00000003
NOT_POR                           00000001
NOT_RBPU                          00000007
NOT_T1SYNC                        00000002
NOT_TO                            00000004
OERR                              00000001
OPTION_REG                        00000081
OSCF                              00000003
PADRAO                            00000026
PCL                               00000002
PCLATH                            0000000A
PCON                              0000008E
PEIE                              00000006
PIE1                              0000008C
PIR1                              0000000C
PORTA                             00000005
PORTB                             00000006
PR2                               00000092
PS0                               00000000
PS1                               00000001
PS2                               00000002
PSA                               00000003
QUAL_DISPLAY                      PORTB,4
RA0                               00000000
RA1                               00000001
RA2                               00000002
RA3                               00000003
RA4                               00000004
RA5                               00000005
RA6                               00000006
RA7                               00000007
RB0                               00000000
RB1                               00000001
RB2                               00000002
RB3                               00000003
RB4                               00000004
RB5                               00000005
RB6                               00000006
MPASM 5.71  /HOME/MATHEUS/DOCUMENTOS/DISCIPL   9-2-2024  23:05:37         PAGE  8


SYMBOL TABLE
  LABEL                             VALUE 

RB7                               00000007
RBIE                              00000003
RBIF                              00000000
RCIE                              00000005
RCIF                              00000005
RCREG                             0000001A
RCSTA                             00000018
RD                                00000000
RP0                               00000005
RP1                               00000006
RX9                               00000006
RX9D                              00000000
SAI_ITERRUPCAO                    0000000E
SPBRG                             00000099
SPEN                              00000007
SREN                              00000005
START                             00000012
STATUS                            00000003
SYNC                              00000004
S_TEMP                            00000024
T0CS                              00000005
T0IE                              00000005
T0IF                              00000002
T0SE                              00000004
T1CKPS0                           00000004
T1CKPS1                           00000005
T1CON                             00000010
T1OSCEN                           00000003
T2CKPS0                           00000000
T2CKPS1                           00000001
T2CON                             00000012
TMR0                              00000001
TMR0IE                            00000005
TMR0IF                            00000002
TMR1                              0000000E
TMR1CS                            00000001
TMR1H                             0000000F
TMR1IE                            00000000
TMR1IF                            00000000
TMR1L                             0000000E
TMR1ON                            00000000
TMR2                              00000011
TMR2IE                            00000001
TMR2IF                            00000001
TMR2ON                            00000002
TMR_1S                            00000025
TOUTPS0                           00000003
TOUTPS1                           00000004
TOUTPS2                           00000005
TOUTPS3                           00000006
TRISA                             00000085
TRISA0                            00000000
TRISA1                            00000001
MPASM 5.71  /HOME/MATHEUS/DOCUMENTOS/DISCIPL   9-2-2024  23:05:37         PAGE  9


SYMBOL TABLE
  LABEL                             VALUE 

TRISA2                            00000002
TRISA3                            00000003
TRISA4                            00000004
TRISA5                            00000005
TRISA6                            00000006
TRISA7                            00000007
TRISB                             00000086
TRISB0                            00000000
TRISB1                            00000001
TRISB2                            00000002
TRISB3                            00000003
TRISB4                            00000004
TRISB5                            00000005
TRISB6                            00000006
TRISB7                            00000007
TRMT                              00000001
TROCA_DISPLAY                     FLAGS,1
TX9                               00000006
TX9D                              00000000
TXEN                              00000005
TXIE                              00000004
TXIF                              00000004
TXREG                             00000019
TXSTA                             00000098
UNIDADE                           00000020
VR0                               00000000
VR1                               00000001
VR2                               00000002
VR3                               00000003
VRCON                             0000009F
VREN                              00000007
VROE                              00000006
VRR                               00000005
V_TMR0                            00000083
W                                 00000000
WR                                00000001
WREN                              00000002
WRERR                             00000003
W_TEMP                            00000023
Z                                 00000002
_BODEN_OFF                        00003FBF
_BODEN_ON                         00003FFF
_BOREN_OFF                        00003FBF
_BOREN_ON                         00003FFF
_CONFIG                           00002007
_CPD_OFF                          00003FFF
_CPD_ON                           00003EFF
_CP_OFF                           00003FFF
_CP_ON                            00001FFF
_DEVID1                           00002006
_ER_OSC_CLKOUT                    00003FFF
_ER_OSC_NOCLKOUT                  00003FFE
_EXTCLK_OSC                       00003FEF
MPASM 5.71  /HOME/MATHEUS/DOCUMENTOS/DISCIPL   9-2-2024  23:05:37         PAGE 10


SYMBOL TABLE
  LABEL                             VALUE 

_FOSC_ECIO                        00003FEF
_FOSC_EXTRCCLK                    00003FFF
_FOSC_EXTRCIO                     00003FFE
_FOSC_HS                          00003FEE
_FOSC_INTOSCCLK                   00003FFD
_FOSC_INTOSCIO                    00003FFC
_FOSC_LP                          00003FEC
_FOSC_XT                          00003FED
_HS_OSC                           00003FEE
_IDLOC0                           00002000
_IDLOC1                           00002001
_IDLOC2                           00002002
_IDLOC3                           00002003
_INTOSC_OSC_CLKOUT                00003FFD
_INTOSC_OSC_NOCLKOUT              00003FFC
_INTRC_OSC_CLKOUT                 00003FFD
_INTRC_OSC_NOCLKOUT               00003FFC
_LP_OSC                           00003FEC
_LVP_OFF                          00003F7F
_LVP_ON                           00003FFF
_MCLRE_OFF                        00003FDF
_MCLRE_ON                         00003FFF
_PWRTE_OFF                        00003FFF
_PWRTE_ON                         00003FF7
_RC_OSC_CLKOUT                    00003FFF
_RC_OSC_NOCLKOUT                  00003FFE
_WDTE_OFF                         00003FFB
_WDTE_ON                          00003FFF
_WDT_OFF                          00003FFB
_WDT_ON                           00003FFF
_XT_OSC                           00003FED
__16F628A                         00000001

Errors   :     0
Warnings :     0 reported,     0 suppressed
Messages :     3 reported,     0 suppressed

